target datalayout = "e-m:e-p270:32:32-p271:32:32-p272:64:64-i64:64-i128:128-f80:128-n8:16:32:64-S128"
target triple = "x86_64-pc-linux-gnu"

%struct.b2JointArray = type { ptr, i32, i32 }

; Function Attrs: nounwind uwtable
define hidden void @b2JointArray_Destroy(ptr noundef %0) #0 {
  %2 = alloca ptr, align 8
  store ptr %0, ptr %2, align 8, !tbaa !12
  %3 = load ptr, ptr %2, align 8, !tbaa !12
  %4 = getelementptr inbounds nuw %struct.b2JointArray, ptr %3, i32 0, i32 0
  %5 = load ptr, ptr %4, align 8, !tbaa !7
  %6 = load ptr, ptr %2, align 8, !tbaa !12
  %7 = getelementptr inbounds nuw %struct.b2JointArray, ptr %6, i32 0, i32 2
  %8 = load i32, ptr %7, align 4, !tbaa !11
  %9 = sext i32 %8 to i64
  %10 = mul i64 %9, 72
  %11 = trunc i64 %10 to i32
  call void @b2Free(ptr noundef %5, i32 noundef %11)
  %12 = load ptr, ptr %2, align 8, !tbaa !12
  %13 = getelementptr inbounds nuw %struct.b2JointArray, ptr %12, i32 0, i32 0
  store ptr null, ptr %13, align 8, !tbaa !7
  %14 = load ptr, ptr %2, align 8, !tbaa !12
  %15 = getelementptr inbounds nuw %struct.b2JointArray, ptr %14, i32 0, i32 1
  store i32 0, ptr %15, align 8, !tbaa !13
  %16 = load ptr, ptr %2, align 8, !tbaa !12
  %17 = getelementptr inbounds nuw %struct.b2JointArray, ptr %16, i32 0, i32 2
  store i32 0, ptr %17, align 4, !tbaa !11
  ret void
}